; Function Attrs: nounwind uwtable
define void @glfwGetWindowFrameSize(ptr noundef %0, ptr noundef %1, ptr noundef %2, ptr noundef %3, ptr noundef %4) local_unnamed_addr #0 {
  %.not = icmp eq ptr %1, null
  br i1 %.not, label %7, label %6

6:                                                ; preds = %5
  store i32 0, ptr %1, align 4, !tbaa !140
  br label %7

7:                                                ; preds = %6, %5
  %.not17 = icmp eq ptr %2, null
  br i1 %.not17, label %9, label %8

8:                                                ; preds = %7
  store i32 0, ptr %2, align 4, !tbaa !140
  br label %9

9:                                                ; preds = %8, %7
  %.not18 = icmp eq ptr %3, null
  br i1 %.not18, label %11, label %10

10:                                               ; preds = %9
  store i32 0, ptr %3, align 4, !tbaa !140
  br label %11

11:                                               ; preds = %10, %9
  %.not19 = icmp eq ptr %4, null
  br i1 %.not19, label %13, label %12

12:                                               ; preds = %11
  store i32 0, ptr %4, align 4, !tbaa !140
  br label %13

13:                                               ; preds = %12, %11
  %14 = load i32, ptr @_glfw, align 8, !tbaa !138
  %.not20 = icmp eq i32 %14, 0
  br i1 %.not20, label %15, label %16

15:                                               ; preds = %13
  tail call void (i32, ptr, ...) @_glfwInputError(i32 noundef 65537, ptr noundef null) #7
  br label %18

16:                                               ; preds = %13
  %17 = load ptr, ptr getelementptr inbounds nuw (i8, ptr @_glfw, i64 360), align 8, !tbaa !241
  tail call void %17(ptr noundef %0, ptr noundef %1, ptr noundef %2, ptr noundef %3, ptr noundef %4) #7
  br label %18

18:                                               ; preds = %16, %15
  ret void
}